; Function Attrs: nounwind uwtable
define internal range(i32 -5, 1) i32 @send_media_header_request(ptr noundef initializes((24, 32), (36, 40), (44, 56), (60, 112)) %0) #0 {
  %2 = getelementptr inbounds nuw i8, ptr %0, i64 24
  %3 = getelementptr inbounds nuw i8, ptr %0, i64 16
  store i32 1, ptr %2, align 1, !tbaa !36
  %4 = getelementptr inbounds nuw i8, ptr %0, i64 28
  store i32 -1341392178, ptr %4, align 1, !tbaa !36
  %5 = getelementptr inbounds nuw i8, ptr %0, i64 32
  %6 = getelementptr inbounds nuw i8, ptr %0, i64 36
  store i32 542330189, ptr %6, align 1, !tbaa !36
  %7 = getelementptr inbounds nuw i8, ptr %0, i64 40
  %8 = getelementptr inbounds nuw i8, ptr %0, i64 44
  %9 = getelementptr inbounds nuw i8, ptr %0, i64 66120
  %10 = load i32, ptr %9, align 8, !tbaa !37
  %11 = add nsw i32 %10, 1
  store i32 %11, ptr %9, align 8, !tbaa !37
  store i32 %10, ptr %8, align 1, !tbaa !36
  %12 = getelementptr inbounds nuw i8, ptr %0, i64 48
  store i64 0, ptr %12, align 1, !tbaa !36
  %13 = getelementptr inbounds nuw i8, ptr %0, i64 56
  %14 = getelementptr inbounds nuw i8, ptr %0, i64 60
  store i16 21, ptr %14, align 1, !tbaa !36
  %15 = getelementptr inbounds nuw i8, ptr %0, i64 62
  store i16 3, ptr %15, align 1, !tbaa !36
  %16 = getelementptr inbounds nuw i8, ptr %0, i64 64
  store i32 1, ptr %16, align 1, !tbaa !36
  %17 = getelementptr inbounds nuw i8, ptr %0, i64 68
  store i32 0, ptr %17, align 1, !tbaa !36
  %18 = getelementptr inbounds nuw i8, ptr %0, i64 72
  store i32 0, ptr %18, align 1, !tbaa !36
  %19 = getelementptr inbounds nuw i8, ptr %0, i64 76
  store i32 8388608, ptr %19, align 1, !tbaa !36
  %20 = getelementptr inbounds nuw i8, ptr %0, i64 80
  store i32 -1, ptr %20, align 1, !tbaa !36
  %21 = getelementptr inbounds nuw i8, ptr %0, i64 84
  store i32 0, ptr %21, align 1, !tbaa !36
  %22 = getelementptr inbounds nuw i8, ptr %0, i64 88
  store i32 0, ptr %22, align 1, !tbaa !36
  %23 = getelementptr inbounds nuw i8, ptr %0, i64 92
  store i32 0, ptr %23, align 1, !tbaa !36
  %24 = getelementptr inbounds nuw i8, ptr %0, i64 96
  store i32 0, ptr %24, align 1, !tbaa !36
  %25 = getelementptr inbounds nuw i8, ptr %0, i64 100
  store i32 1085022208, ptr %25, align 1, !tbaa !36
  %26 = getelementptr inbounds nuw i8, ptr %0, i64 104
  store i32 2, ptr %26, align 1, !tbaa !36
  %27 = getelementptr inbounds nuw i8, ptr %0, i64 108
  store i32 0, ptr %27, align 1, !tbaa !36
  %28 = getelementptr inbounds nuw i8, ptr %0, i64 112
  store ptr %28, ptr %3, align 8, !tbaa !38
  store i32 72, ptr %5, align 1, !tbaa !36
  store i32 9, ptr %7, align 1, !tbaa !36
  store i32 7, ptr %13, align 1, !tbaa !36
  %29 = load ptr, ptr %0, align 8, !tbaa !31
  %30 = tail call i32 @ffurl_write2(ptr noundef %29, ptr noundef nonnull %2, i32 noundef range(i32 0, -7) 88) #7
  %.not.i = icmp eq i32 %30, 88
  br i1 %.not.i, label %send_command_packet.exit, label %31

31:                                               ; preds = %1
  %32 = load ptr, ptr %0, align 8, !tbaa !31
  %33 = icmp slt i32 %30, 0
  br i1 %33, label %34, label %37

34:                                               ; preds = %31
  %35 = sub nsw i32 0, %30
  %36 = tail call ptr @strerror(i32 noundef %35) #7
  br label %37

37:                                               ; preds = %34, %31
  %38 = phi ptr [ %36, %34 ], [ @.str.11, %31 ]
  tail call void (ptr, i32, ptr, ...) @av_log(ptr noundef %32, i32 noundef 16, ptr noundef nonnull @.str.19, i32 noundef 88, i32 noundef %30, ptr noundef %38) #7
  br label %send_command_packet.exit

send_command_packet.exit:                         ; preds = %1, %37
  %.0.i = phi i32 [ -5, %37 ], [ 0, %1 ]
  ret i32 %.0.i
}